target datalayout = "e-m:e-p270:32:32-p271:32:32-p272:64:64-i64:64-i128:128-f80:128-n8:16:32:64-S128"
target triple = "x86_64-pc-linux-gnu"

%struct.Nwk_Man_t_ = type { ptr, ptr, ptr, ptr, ptr, [5 x i32], i32, ptr, ptr, ptr, ptr, ptr, i32, i32, i32, i32, i32 }
%struct.Vec_Ptr_t_ = type { i32, i32, ptr }
%struct.If_LibLut_t_ = type { ptr, i32, i32, [33 x float], [33 x [33 x float]] }
%struct.Nwk_Obj_t_ = type { ptr, ptr, ptr, %union.anon, i32, i32, i32, i32, float, float, float, i32, i32, i32, ptr }
%union.anon = type { ptr }

@.str = private unnamed_addr constant [15 x i8] c"LUTs by size: \00", align 1
@.str.1 = private unnamed_addr constant [7 x i8] c"%d:%d \00", align 1
@.str.2 = private unnamed_addr constant [10 x i8] c"nameless_\00", align 1
@.str.3 = private unnamed_addr constant [13 x i8] c"%s_dump.blif\00", align 1
@.str.4 = private unnamed_addr constant [9 x i8] c"%-15s : \00", align 1
@.str.5 = private unnamed_addr constant [11 x i8] c"pi = %5d  \00", align 1
@.str.6 = private unnamed_addr constant [11 x i8] c"po = %5d  \00", align 1
@.str.7 = private unnamed_addr constant [11 x i8] c"ci = %5d  \00", align 1
@.str.8 = private unnamed_addr constant [11 x i8] c"co = %5d  \00", align 1
@.str.9 = private unnamed_addr constant [13 x i8] c"node = %5d  \00", align 1
@.str.10 = private unnamed_addr constant [13 x i8] c"edge = %5d  \00", align 1
@.str.11 = private unnamed_addr constant [12 x i8] c"aig = %6d  \00", align 1
@.str.12 = private unnamed_addr constant [12 x i8] c"lev = %3d  \00", align 1
@.str.13 = private unnamed_addr constant [16 x i8] c"delay = %5.2f  \00", align 1
@.str.14 = private unnamed_addr constant [17 x i8] c"power = %7.2f   \00", align 1
@.str.15 = private unnamed_addr constant [2 x i8] c"\0A\00", align 1
@stdout = external global ptr, align 8

; Function Attrs: inlinehint nounwind uwtable
define internal i32 @Nwk_ObjFaninNum(ptr noundef %0) #4 {
  %2 = alloca ptr, align 8
  store ptr %0, ptr %2, align 8, !tbaa !33
  %3 = load ptr, ptr %2, align 8, !tbaa !33
  %4 = getelementptr inbounds nuw %struct.Nwk_Obj_t_, ptr %3, i32 0, i32 11
  %5 = load i32, ptr %4, align 4, !tbaa !41
  ret i32 %5
}

; Function Attrs: inlinehint nounwind uwtable
define internal i32 @Nwk_ObjIsNode(ptr noundef %0) #4 {
  %2 = alloca ptr, align 8
  store ptr %0, ptr %2, align 8, !tbaa !33
  %3 = load ptr, ptr %2, align 8, !tbaa !33
  %4 = getelementptr inbounds nuw %struct.Nwk_Obj_t_, ptr %3, i32 0, i32 4
  %5 = load i32, ptr %4, align 8
  %6 = and i32 %5, 7
  %7 = icmp eq i32 %6, 3
  %8 = zext i1 %7 to i32
  ret i32 %8
}

; Function Attrs: inlinehint nounwind uwtable
define internal ptr @Vec_PtrEntry(ptr noundef %0, i32 noundef %1) #4 {
  %3 = alloca ptr, align 8
  %4 = alloca i32, align 4
  store ptr %0, ptr %3, align 8, !tbaa !24
  store i32 %1, ptr %4, align 4, !tbaa !23
  %5 = load ptr, ptr %3, align 8, !tbaa !24
  %6 = getelementptr inbounds nuw %struct.Vec_Ptr_t_, ptr %5, i32 0, i32 2
  %7 = load ptr, ptr %6, align 8, !tbaa !28
  %8 = load i32, ptr %4, align 4, !tbaa !23
  %9 = sext i32 %8 to i64
  %10 = getelementptr inbounds ptr, ptr %7, i64 %9
  %11 = load ptr, ptr %10, align 8, !tbaa !40
  ret ptr %11
}

; Function Attrs: inlinehint nounwind uwtable
define internal i32 @Vec_PtrSize(ptr noundef %0) #4 {
  %2 = alloca ptr, align 8
  store ptr %0, ptr %2, align 8, !tbaa !24
  %3 = load ptr, ptr %2, align 8, !tbaa !24
  %4 = getelementptr inbounds nuw %struct.Vec_Ptr_t_, ptr %3, i32 0, i32 1
  %5 = load i32, ptr %4, align 4, !tbaa !25
  ret i32 %5
}

; Function Attrs: inlinehint nounwind uwtable
define internal ptr @Abc_UtilStrsav(ptr noundef %0) #4 {
  %2 = alloca ptr, align 8
  store ptr %0, ptr %2, align 8, !tbaa !53
  %3 = load ptr, ptr %2, align 8, !tbaa !53
  %4 = icmp ne ptr %3, null
  br i1 %4, label %5, label %13

5:                                                ; preds = %1
  %6 = load ptr, ptr %2, align 8, !tbaa !53
  %7 = call i64 @strlen(ptr noundef %6) #11
  %8 = add i64 %7, 1
  %9 = mul i64 1, %8
  %10 = call noalias ptr @malloc(i64 noundef %9) #10
  %11 = load ptr, ptr %2, align 8, !tbaa !53
  %12 = call ptr @strcpy(ptr noundef %10, ptr noundef %11) #9
  br label %14

13:                                               ; preds = %1
  br label %14

14:                                               ; preds = %13, %5
  %15 = phi ptr [ %12, %5 ], [ null, %13 ]
  ret ptr %15
}

; Function Attrs: nounwind uwtable
define void @Nwk_ManPrintLutSizes(ptr noundef %0, ptr noundef %1) #0 {
  %3 = alloca ptr, align 8
  %4 = alloca ptr, align 8
  %5 = alloca ptr, align 8
  %6 = alloca i32, align 4
  %7 = alloca [256 x i32], align 16
  store ptr %0, ptr %3, align 8, !tbaa !3
  store ptr %1, ptr %4, align 8, !tbaa !32
  call void @llvm.lifetime.start.p0(i64 8, ptr %5) #9
  call void @llvm.lifetime.start.p0(i64 4, ptr %6) #9
  call void @llvm.lifetime.start.p0(i64 1024, ptr %7) #9
  call void @llvm.memset.p0.i64(ptr align 16 %7, i8 0, i64 1024, i1 false)
  store i32 0, ptr %6, align 4, !tbaa !23
  br label %8

8:                                                ; preds = %39, %2
  %9 = load i32, ptr %6, align 4, !tbaa !23
  %10 = load ptr, ptr %3, align 8, !tbaa !3
  %11 = getelementptr inbounds nuw %struct.Nwk_Man_t_, ptr %10, i32 0, i32 4
  %12 = load ptr, ptr %11, align 8, !tbaa !18
  %13 = call i32 @Vec_PtrSize(ptr noundef %12)
  %14 = icmp slt i32 %9, %13
  br i1 %14, label %15, label %21

15:                                               ; preds = %8
  %16 = load ptr, ptr %3, align 8, !tbaa !3
  %17 = getelementptr inbounds nuw %struct.Nwk_Man_t_, ptr %16, i32 0, i32 4
  %18 = load ptr, ptr %17, align 8, !tbaa !18
  %19 = load i32, ptr %6, align 4, !tbaa !23
  %20 = call ptr @Vec_PtrEntry(ptr noundef %18, i32 noundef %19)
  store ptr %20, ptr %5, align 8, !tbaa !33
  br label %21

21:                                               ; preds = %15, %8
  %22 = phi i1 [ false, %8 ], [ true, %15 ]
  br i1 %22, label %23, label %42

23:                                               ; preds = %21
  %24 = load ptr, ptr %5, align 8, !tbaa !33
  %25 = icmp eq ptr %24, null
  br i1 %25, label %30, label %26

26:                                               ; preds = %23
  %27 = load ptr, ptr %5, align 8, !tbaa !33
  %28 = call i32 @Nwk_ObjIsNode(ptr noundef %27)
  %29 = icmp ne i32 %28, 0
  br i1 %29, label %31, label %30

30:                                               ; preds = %26, %23
  br label %38

31:                                               ; preds = %26
  %32 = load ptr, ptr %5, align 8, !tbaa !33
  %33 = call i32 @Nwk_ObjFaninNum(ptr noundef %32)
  %34 = sext i32 %33 to i64
  %35 = getelementptr inbounds [256 x i32], ptr %7, i64 0, i64 %34
  %36 = load i32, ptr %35, align 4, !tbaa !23
  %37 = add nsw i32 %36, 1
  store i32 %37, ptr %35, align 4, !tbaa !23
  br label %38

38:                                               ; preds = %31, %30
  br label %39

39:                                               ; preds = %38
  %40 = load i32, ptr %6, align 4, !tbaa !23
  %41 = add nsw i32 %40, 1
  store i32 %41, ptr %6, align 4, !tbaa !23
  br label %8, !llvm.loop !35

42:                                               ; preds = %21
  %43 = call i32 (ptr, ...) @printf(ptr noundef @.str)
  store i32 0, ptr %6, align 4, !tbaa !23
  br label %44

44:                                               ; preds = %57, %42
  %45 = load i32, ptr %6, align 4, !tbaa !23
  %46 = load ptr, ptr %4, align 8, !tbaa !32
  %47 = getelementptr inbounds nuw %struct.If_LibLut_t_, ptr %46, i32 0, i32 1
  %48 = load i32, ptr %47, align 8, !tbaa !37
  %49 = icmp sle i32 %45, %48
  br i1 %49, label %50, label %60

50:                                               ; preds = %44
  %51 = load i32, ptr %6, align 4, !tbaa !23
  %52 = load i32, ptr %6, align 4, !tbaa !23
  %53 = sext i32 %52 to i64
  %54 = getelementptr inbounds [256 x i32], ptr %7, i64 0, i64 %53
  %55 = load i32, ptr %54, align 4, !tbaa !23
  %56 = call i32 (ptr, ...) @printf(ptr noundef @.str.1, i32 noundef %51, i32 noundef %55)
  br label %57

57:                                               ; preds = %50
  %58 = load i32, ptr %6, align 4, !tbaa !23
  %59 = add nsw i32 %58, 1
  store i32 %59, ptr %6, align 4, !tbaa !23
  br label %44, !llvm.loop !39

60:                                               ; preds = %44
  call void @llvm.lifetime.end.p0(i64 1024, ptr %7) #9
  call void @llvm.lifetime.end.p0(i64 4, ptr %6) #9
  call void @llvm.lifetime.end.p0(i64 8, ptr %5) #9
  ret void
}

; Function Attrs: inlinehint nounwind uwtable
define internal i32 @Nwk_ManNodeNum(ptr noundef %0) #4 {
  %2 = alloca ptr, align 8
  store ptr %0, ptr %2, align 8, !tbaa !3
  %3 = load ptr, ptr %2, align 8, !tbaa !3
  %4 = getelementptr inbounds nuw %struct.Nwk_Man_t_, ptr %3, i32 0, i32 5
  %5 = getelementptr inbounds [5 x i32], ptr %4, i64 0, i64 3
  %6 = load i32, ptr %5, align 4, !tbaa !23
  ret i32 %6
}

; Function Attrs: inlinehint nounwind uwtable
define internal i32 @Nwk_ManCoNum(ptr noundef %0) #4 {
  %2 = alloca ptr, align 8
  store ptr %0, ptr %2, align 8, !tbaa !3
  %3 = load ptr, ptr %2, align 8, !tbaa !3
  %4 = getelementptr inbounds nuw %struct.Nwk_Man_t_, ptr %3, i32 0, i32 5
  %5 = getelementptr inbounds [5 x i32], ptr %4, i64 0, i64 2
  %6 = load i32, ptr %5, align 8, !tbaa !23
  ret i32 %6
}

; Function Attrs: inlinehint nounwind uwtable
define internal i32 @Nwk_ManCiNum(ptr noundef %0) #4 {
  %2 = alloca ptr, align 8
  store ptr %0, ptr %2, align 8, !tbaa !3
  %3 = load ptr, ptr %2, align 8, !tbaa !3
  %4 = getelementptr inbounds nuw %struct.Nwk_Man_t_, ptr %3, i32 0, i32 5
  %5 = getelementptr inbounds [5 x i32], ptr %4, i64 0, i64 1
  %6 = load i32, ptr %5, align 4, !tbaa !23
  ret i32 %6
}

; Function Attrs: nounwind uwtable
define ptr @Nwk_FileNameGeneric(ptr noundef %0) #0 {
  %2 = alloca ptr, align 8
  %3 = alloca ptr, align 8
  %4 = alloca ptr, align 8
  store ptr %0, ptr %2, align 8, !tbaa !53
  call void @llvm.lifetime.start.p0(i64 8, ptr %3) #9
  call void @llvm.lifetime.start.p0(i64 8, ptr %4) #9
  %5 = load ptr, ptr %2, align 8, !tbaa !53
  %6 = call ptr @Abc_UtilStrsav(ptr noundef %5)
  store ptr %6, ptr %4, align 8, !tbaa !53
  %7 = load ptr, ptr %4, align 8, !tbaa !53
  %8 = call ptr @strrchr(ptr noundef %7, i32 noundef 46) #11
  store ptr %8, ptr %3, align 8, !tbaa !53
  %9 = icmp ne ptr %8, null
  br i1 %9, label %10, label %12

10:                                               ; preds = %1
  %11 = load ptr, ptr %3, align 8, !tbaa !53
  store i8 0, ptr %11, align 1, !tbaa !54
  br label %12

12:                                               ; preds = %10, %1
  %13 = load ptr, ptr %4, align 8, !tbaa !53
  call void @llvm.lifetime.end.p0(i64 8, ptr %4) #9
  call void @llvm.lifetime.end.p0(i64 8, ptr %3) #9
  ret ptr %13
}

; Function Attrs: nounwind uwtable
define void @Nwk_ManPrintStats(ptr noundef %0, ptr noundef %1, i32 noundef %2, i32 noundef %3, i32 noundef %4, ptr noundef %5) #0 {
  %7 = alloca ptr, align 8
  %8 = alloca ptr, align 8
  %9 = alloca i32, align 4
  %10 = alloca i32, align 4
  %11 = alloca i32, align 4
  %12 = alloca ptr, align 8
  %13 = alloca [1000 x i8], align 16
  %14 = alloca ptr, align 8
  store ptr %0, ptr %7, align 8, !tbaa !3
  store ptr %1, ptr %8, align 8, !tbaa !32
  store i32 %2, ptr %9, align 4, !tbaa !23
  store i32 %3, ptr %10, align 4, !tbaa !23
  store i32 %4, ptr %11, align 4, !tbaa !23
  store ptr %5, ptr %12, align 8, !tbaa !72
  %15 = load i32, ptr %9, align 4, !tbaa !23
  %16 = icmp ne i32 %15, 0
  br i1 %16, label %17, label %21

17:                                               ; preds = %6
  %18 = load ptr, ptr %7, align 8, !tbaa !3
  %19 = load ptr, ptr %12, align 8, !tbaa !72
  %20 = call i32 @Nwk_ManCompareAndSaveBest(ptr noundef %18, ptr noundef %19)
  br label %21

21:                                               ; preds = %17, %6
  %22 = load i32, ptr %10, align 4, !tbaa !23
  %23 = icmp ne i32 %22, 0
  br i1 %23, label %24, label %52

24:                                               ; preds = %21
  call void @llvm.lifetime.start.p0(i64 1000, ptr %13) #9
  call void @llvm.memset.p0.i64(ptr align 16 %13, i8 0, i64 1000, i1 false)
  call void @llvm.lifetime.start.p0(i64 8, ptr %14) #9
  %25 = load ptr, ptr %7, align 8, !tbaa !3
  %26 = getelementptr inbounds nuw %struct.Nwk_Man_t_, ptr %25, i32 0, i32 1
  %27 = load ptr, ptr %26, align 8, !tbaa !30
  %28 = icmp ne ptr %27, null
  br i1 %28, label %29, label %34

29:                                               ; preds = %24
  %30 = load ptr, ptr %7, align 8, !tbaa !3
  %31 = getelementptr inbounds nuw %struct.Nwk_Man_t_, ptr %30, i32 0, i32 1
  %32 = load ptr, ptr %31, align 8, !tbaa !30
  %33 = call ptr @Nwk_FileNameGeneric(ptr noundef %32)
  br label %35

34:                                               ; preds = %24
  br label %35

35:                                               ; preds = %34, %29
  %36 = phi ptr [ %33, %29 ], [ @.str.2, %34 ]
  store ptr %36, ptr %14, align 8, !tbaa !53
  %37 = getelementptr inbounds [1000 x i8], ptr %13, i64 0, i64 0
  %38 = load ptr, ptr %14, align 8, !tbaa !53
  %39 = call i32 (ptr, ptr, ...) @sprintf(ptr noundef %37, ptr noundef @.str.3, ptr noundef %38) #9
  %40 = load ptr, ptr %7, align 8, !tbaa !3
  %41 = getelementptr inbounds nuw %struct.Nwk_Man_t_, ptr %40, i32 0, i32 1
  %42 = load ptr, ptr %41, align 8, !tbaa !30
  %43 = icmp ne ptr %42, null
  br i1 %43, label %44, label %51

44:                                               ; preds = %35
  %45 = load ptr, ptr %14, align 8, !tbaa !53
  %46 = icmp ne ptr %45, null
  br i1 %46, label %47, label %49

47:                                               ; preds = %44
  %48 = load ptr, ptr %14, align 8, !tbaa !53
  call void @free(ptr noundef %48) #9
  store ptr null, ptr %14, align 8, !tbaa !53
  br label %50

49:                                               ; preds = %44
  br label %50

50:                                               ; preds = %49, %47
  br label %51

51:                                               ; preds = %50, %35
  call void @llvm.lifetime.end.p0(i64 8, ptr %14) #9
  call void @llvm.lifetime.end.p0(i64 1000, ptr %13) #9
  br label %52

52:                                               ; preds = %51, %21
  %53 = load ptr, ptr %8, align 8, !tbaa !32
  %54 = load ptr, ptr %7, align 8, !tbaa !3
  %55 = getelementptr inbounds nuw %struct.Nwk_Man_t_, ptr %54, i32 0, i32 9
  store ptr %53, ptr %55, align 8, !tbaa !74
  %56 = load ptr, ptr %7, align 8, !tbaa !3
  %57 = getelementptr inbounds nuw %struct.Nwk_Man_t_, ptr %56, i32 0, i32 0
  %58 = load ptr, ptr %57, align 8, !tbaa !29
  %59 = call i32 (ptr, ...) @printf(ptr noundef @.str.4, ptr noundef %58)
  %60 = load ptr, ptr %7, align 8, !tbaa !3
  %61 = call i32 @Nwk_ManPiNum(ptr noundef %60)
  %62 = call i32 (ptr, ...) @printf(ptr noundef @.str.5, i32 noundef %61)
  %63 = load ptr, ptr %7, align 8, !tbaa !3
  %64 = call i32 @Nwk_ManPoNum(ptr noundef %63)
  %65 = call i32 (ptr, ...) @printf(ptr noundef @.str.6, i32 noundef %64)
  %66 = load ptr, ptr %7, align 8, !tbaa !3
  %67 = call i32 @Nwk_ManCiNum(ptr noundef %66)
  %68 = call i32 (ptr, ...) @printf(ptr noundef @.str.7, i32 noundef %67)
  %69 = load ptr, ptr %7, align 8, !tbaa !3
  %70 = call i32 @Nwk_ManCoNum(ptr noundef %69)
  %71 = call i32 (ptr, ...) @printf(ptr noundef @.str.8, i32 noundef %70)
  %72 = load ptr, ptr %7, align 8, !tbaa !3
  %73 = call i32 @Nwk_ManNodeNum(ptr noundef %72)
  %74 = call i32 (ptr, ...) @printf(ptr noundef @.str.9, i32 noundef %73)
  %75 = load ptr, ptr %7, align 8, !tbaa !3
  %76 = call i32 @Nwk_ManGetTotalFanins(ptr noundef %75)
  %77 = call i32 (ptr, ...) @printf(ptr noundef @.str.10, i32 noundef %76)
  %78 = load ptr, ptr %7, align 8, !tbaa !3
  %79 = call i32 @Nwk_ManGetAigNodeNum(ptr noundef %78)
  %80 = call i32 (ptr, ...) @printf(ptr noundef @.str.11, i32 noundef %79)
  %81 = load ptr, ptr %7, align 8, !tbaa !3
  %82 = call i32 @Nwk_ManLevel(ptr noundef %81)
  %83 = call i32 (ptr, ...) @printf(ptr noundef @.str.12, i32 noundef %82)
  %84 = load ptr, ptr %7, align 8, !tbaa !3
  %85 = call float @Nwk_ManDelayTraceLut(ptr noundef %84)
  %86 = fpext float %85 to double
  %87 = call i32 (ptr, ...) @printf(ptr noundef @.str.13, double noundef %86)
  %88 = load i32, ptr %11, align 4, !tbaa !23
  %89 = icmp ne i32 %88, 0
  br i1 %89, label %90, label %95

90:                                               ; preds = %52
  %91 = load ptr, ptr %7, align 8, !tbaa !3
  %92 = call float @Nwl_ManComputeTotalSwitching(ptr noundef %91)
  %93 = fpext float %92 to double
  %94 = call i32 (ptr, ...) @printf(ptr noundef @.str.14, double noundef %93)
  br label %95

95:                                               ; preds = %90, %52
  %96 = load ptr, ptr %7, align 8, !tbaa !3
  %97 = load ptr, ptr %8, align 8, !tbaa !32
  call void @Nwk_ManPrintLutSizes(ptr noundef %96, ptr noundef %97)
  %98 = call i32 (ptr, ...) @printf(ptr noundef @.str.15)
  %99 = load ptr, ptr @stdout, align 8, !tbaa !75
  %100 = call i32 @fflush(ptr noundef %99)
  ret void
}