; Function Attrs: nounwind uwtable
define void @Nwk_ManPrintStats(ptr noundef %0, ptr noundef %1, i32 noundef %2, i32 noundef %3, i32 noundef %4, ptr noundef readnone captures(none) %5) local_unnamed_addr #0 {
  %7 = alloca [256 x i32], align 16
  %8 = alloca [1000 x i8], align 16
  %.not = icmp eq i32 %2, 0
  br i1 %.not, label %11, label %9

9:                                                ; preds = %6
  %10 = tail call i32 @Nwk_ManCompareAndSaveBest(ptr noundef %0, ptr poison)
  br label %11

11:                                               ; preds = %9, %6
  %.not27 = icmp eq i32 %3, 0
  br i1 %.not27, label %26, label %12

12:                                               ; preds = %11
  call void @llvm.lifetime.start.p0(i64 1000, ptr nonnull %8) #15
  %13 = getelementptr inbounds nuw i8, ptr %0, i64 8
  %14 = load ptr, ptr %13, align 8, !tbaa !26
  %.not28 = icmp eq ptr %14, null
  br i1 %.not28, label %Nwk_FileNameGeneric.exit, label %Abc_UtilStrsav.exit.i

Abc_UtilStrsav.exit.i:                            ; preds = %12
  %15 = tail call i64 @strlen(ptr noundef nonnull readonly dereferenceable(1) %14) #16
  %16 = add i64 %15, 1
  %17 = tail call noalias ptr @malloc(i64 noundef %16) #14
  %18 = tail call ptr @strcpy(ptr noundef nonnull dereferenceable(1) %17, ptr noundef nonnull readonly dereferenceable(1) %14) #15
  %19 = tail call ptr @strrchr(ptr noundef nonnull dereferenceable(1) %17, i32 noundef 46) #16
  %.not.i = icmp eq ptr %19, null
  br i1 %.not.i, label %Nwk_FileNameGeneric.exit, label %20

20:                                               ; preds = %Abc_UtilStrsav.exit.i
  store i8 0, ptr %19, align 1, !tbaa !46
  br label %Nwk_FileNameGeneric.exit

Nwk_FileNameGeneric.exit:                         ; preds = %20, %Abc_UtilStrsav.exit.i, %12
  %21 = phi ptr [ @.str.2, %12 ], [ %17, %Abc_UtilStrsav.exit.i ], [ %17, %20 ]
  %22 = call i32 (ptr, ptr, ...) @sprintf(ptr noundef nonnull dereferenceable(1) %8, ptr noundef nonnull dereferenceable(1) @.str.3, ptr noundef nonnull %21) #15
  %23 = load ptr, ptr %13, align 8, !tbaa !26
  %.not32 = icmp eq ptr %23, null
  br i1 %.not32, label %25, label %24

24:                                               ; preds = %Nwk_FileNameGeneric.exit
  tail call void @free(ptr noundef nonnull %21) #15
  br label %25

25:                                               ; preds = %24, %Nwk_FileNameGeneric.exit
  call void @llvm.lifetime.end.p0(i64 1000, ptr nonnull %8) #15
  br label %26

26:                                               ; preds = %25, %11
  %27 = getelementptr inbounds nuw i8, ptr %0, i64 80
  store ptr %1, ptr %27, align 8, !tbaa !57
  %28 = load ptr, ptr %0, align 8, !tbaa !25
  %29 = tail call i32 (ptr, ...) @printf(ptr noundef nonnull dereferenceable(1) @.str.4, ptr noundef %28)
  %30 = tail call i32 @Nwk_ManPiNum(ptr noundef nonnull %0) #15
  %31 = tail call i32 (ptr, ...) @printf(ptr noundef nonnull dereferenceable(1) @.str.5, i32 noundef %30)
  %32 = tail call i32 @Nwk_ManPoNum(ptr noundef nonnull %0) #15
  %33 = tail call i32 (ptr, ...) @printf(ptr noundef nonnull dereferenceable(1) @.str.6, i32 noundef %32)
  %34 = getelementptr i8, ptr %0, i64 44
  %.val30 = load i32, ptr %34, align 4, !tbaa !35
  %35 = tail call i32 (ptr, ...) @printf(ptr noundef nonnull dereferenceable(1) @.str.7, i32 noundef %.val30)
  %36 = getelementptr i8, ptr %0, i64 48
  %.val31 = load i32, ptr %36, align 8, !tbaa !35
  %37 = tail call i32 (ptr, ...) @printf(ptr noundef nonnull dereferenceable(1) @.str.8, i32 noundef %.val31)
  %38 = getelementptr i8, ptr %0, i64 52
  %.val = load i32, ptr %38, align 4, !tbaa !35
  %39 = tail call i32 (ptr, ...) @printf(ptr noundef nonnull dereferenceable(1) @.str.9, i32 noundef %.val)
  %40 = tail call i32 @Nwk_ManGetTotalFanins(ptr noundef nonnull %0) #15
  %41 = tail call i32 (ptr, ...) @printf(ptr noundef nonnull dereferenceable(1) @.str.10, i32 noundef %40)
  %42 = tail call i32 @Nwk_ManGetAigNodeNum(ptr noundef nonnull %0) #15
  %43 = tail call i32 (ptr, ...) @printf(ptr noundef nonnull dereferenceable(1) @.str.11, i32 noundef %42)
  %44 = tail call i32 @Nwk_ManLevel(ptr noundef nonnull %0) #15
  %45 = tail call i32 (ptr, ...) @printf(ptr noundef nonnull dereferenceable(1) @.str.12, i32 noundef %44)
  %46 = tail call float @Nwk_ManDelayTraceLut(ptr noundef nonnull %0) #15
  %47 = fpext float %46 to double
  %48 = tail call i32 (ptr, ...) @printf(ptr noundef nonnull dereferenceable(1) @.str.13, double noundef %47)
  %.not29 = icmp eq i32 %4, 0
  br i1 %.not29, label %53, label %49

49:                                               ; preds = %26
  %50 = tail call float @Nwl_ManComputeTotalSwitching(ptr noundef nonnull %0)
  %51 = fpext float %50 to double
  %52 = tail call i32 (ptr, ...) @printf(ptr noundef nonnull dereferenceable(1) @.str.14, double noundef %51)
  br label %53

53:                                               ; preds = %49, %26
  call void @llvm.lifetime.start.p0(i64 1024, ptr nonnull %7) #15
  call void @llvm.memset.p0.i64(ptr noundef nonnull align 16 dereferenceable(1024) %7, i8 0, i64 1024, i1 false)
  %54 = getelementptr inbounds nuw i8, ptr %0, i64 32
  %55 = load ptr, ptr %54, align 8, !tbaa !20
  %56 = getelementptr i8, ptr %55, i64 4
  %.val.i = load i32, ptr %56, align 4, !tbaa !3
  %57 = icmp sgt i32 %.val.i, 0
  br i1 %57, label %.lr.ph.i, label %.critedge.i

.lr.ph.i:                                         ; preds = %53
  %58 = getelementptr i8, ptr %55, i64 8
  %.val14.i = load ptr, ptr %58, align 8, !tbaa !10
  %wide.trip.count.i = zext nneg i32 %.val.i to i64
  br label %59

59:                                               ; preds = %72, %.lr.ph.i
  %indvars.iv.i = phi i64 [ 0, %.lr.ph.i ], [ %indvars.iv.next.i, %72 ]
  %60 = getelementptr inbounds nuw ptr, ptr %.val14.i, i64 %indvars.iv.i
  %61 = load ptr, ptr %60, align 8, !tbaa !28
  %62 = icmp eq ptr %61, null
  br i1 %62, label %72, label %63

63:                                               ; preds = %59
  %64 = getelementptr i8, ptr %61, i64 32
  %.val15.i = load i32, ptr %64, align 8
  %65 = and i32 %.val15.i, 7
  %.not17.i = icmp eq i32 %65, 3
  br i1 %.not17.i, label %66, label %72

66:                                               ; preds = %63
  %67 = getelementptr i8, ptr %61, i64 60
  %.val16.i = load i32, ptr %67, align 4, !tbaa !29
  %68 = sext i32 %.val16.i to i64
  %69 = getelementptr inbounds [256 x i32], ptr %7, i64 0, i64 %68
  %70 = load i32, ptr %69, align 4, !tbaa !35
  %71 = add nsw i32 %70, 1
  store i32 %71, ptr %69, align 4, !tbaa !35
  br label %72

72:                                               ; preds = %66, %63, %59
  %indvars.iv.next.i = add nuw nsw i64 %indvars.iv.i, 1
  %exitcond.not.i = icmp eq i64 %indvars.iv.next.i, %wide.trip.count.i
  br i1 %exitcond.not.i, label %.critedge.i, label %59, !llvm.loop !36

.critedge.i:                                      ; preds = %72, %53
  %73 = tail call i32 (ptr, ...) @printf(ptr noundef nonnull dereferenceable(1) @.str)
  %74 = getelementptr inbounds nuw i8, ptr %1, i64 8
  %75 = load i32, ptr %74, align 8, !tbaa !38
  %.not19.i = icmp slt i32 %75, 0
  br i1 %.not19.i, label %Nwk_ManPrintLutSizes.exit, label %.lr.ph21.i

.lr.ph21.i:                                       ; preds = %.critedge.i, %.lr.ph21.i
  %indvars.iv23.i = phi i64 [ %indvars.iv.next24.i, %.lr.ph21.i ], [ 0, %.critedge.i ]
  %76 = getelementptr inbounds nuw [256 x i32], ptr %7, i64 0, i64 %indvars.iv23.i
  %77 = load i32, ptr %76, align 4, !tbaa !35
  %78 = trunc nuw nsw i64 %indvars.iv23.i to i32
  %79 = tail call i32 (ptr, ...) @printf(ptr noundef nonnull dereferenceable(1) @.str.1, i32 noundef %78, i32 noundef %77)
  %indvars.iv.next24.i = add nuw nsw i64 %indvars.iv23.i, 1
  %80 = load i32, ptr %74, align 8, !tbaa !38
  %81 = sext i32 %80 to i64
  %.not.not.i = icmp slt i64 %indvars.iv23.i, %81
  br i1 %.not.not.i, label %.lr.ph21.i, label %Nwk_ManPrintLutSizes.exit, !llvm.loop !40

Nwk_ManPrintLutSizes.exit:                        ; preds = %.lr.ph21.i, %.critedge.i
  call void @llvm.lifetime.end.p0(i64 1024, ptr nonnull %7) #15
  %putchar = tail call i32 @putchar(i32 10)
  %82 = load ptr, ptr @stdout, align 8, !tbaa !58
  %83 = tail call i32 @fflush(ptr noundef %82)
  ret void
}